(dp0
S'a38d195bf61a1381e01abd5a9deda95d8e254ba2'
p1
(i__main__
Info
p2
(dp3
S'standing'
p4
S'Freshman'
p5
sS'gender'
p6
S'Male'
p7
sS'ageband'
p8
S'40 - 49'
p9
sS'hashed_meid'
p10
g1
sbsS'36d4d50f20a8c6c515b94ef54999c4dcb2f06393'
p11
(i__main__
Info
p12
(dp13
g4
S'Sophomore'
p14
sg6
S'Male'
p15
sg8
S'18 - 19'
p16
sg10
g11
sbsS'7d27bc4cea99ce72041b14640511c6b233fab832'
p17
(i__main__
Info
p18
(dp19
g4
S'Sophomore'
p20
sg6
S'Female'
p21
sg8
S'18 - 19'
p22
sg10
g17
sbsS'028e2e9fe3c1a408e4ea0bdc932dc09b87692946'
p23
(i__main__
Info
p24
(dp25
g4
S'PhD'
p26
sg6
S'Male'
p27
sg8
S'25 - 29'
p28
sg10
g23
sbsS'acac79faf66e39f37c2fd6f931d2f1aef27be32c'
p29
(i__main__
Info
p30
(dp31
g4
S'Sophomore'
p32
sg6
S'Female'
p33
sg8
S'18 - 19'
p34
sg10
g29
sbsS'26605c7b8472c4a6975e711574dc7be727a9e9cb'
p35
(i__main__
Info
p36
(dp37
g4
S'Freshman'
p38
sg6
S'Male'
p39
sg8
S'Under 18'
p40
sg10
g35
sbsS'3a5b2aec09df49345a3446f1e4da9946d822557f'
p41
(i__main__
Info
p42
(dp43
g4
S'Faculty'
p44
sg6
S'Female'
p45
sg8
S'30 - 34'
p46
sg10
g41
sbsS'39c42a753a67323907e8c5e44314e1d65544c945'
p47
(i__main__
Info
p48
(dp49
g4
g26
sg6
S'Male'
p50
sg8
S'22 - 24'
p51
sg10
g47
sbsS'54e5ba121e82a1a0f4a9330fa7f959a241b40602'
p52
(i__main__
Info
p53
(dp54
g4
S'Freshman'
p55
sg6
S'Male'
p56
sg8
S'Under 18'
p57
sg10
g52
sbsS'f1b3bc6463386de4dbfd8e5321bcb0490658c50d'
p58
(i__main__
Info
p59
(dp60
g4
g26
sg6
S'Male'
p61
sg8
S'25 - 29'
p62
sg10
g58
sbsS'83417a40cf55d9ad430ff4bcdf0a1de2ef66b651'
p63
(i__main__
Info
p64
(dp65
g4
g26
sg6
S'Male'
p66
sg8
S'40 - 49'
p67
sg10
g63
sbsS'b52f8655c158932b01939b49f1b118ff8aa3e962'
p68
(i__main__
Info
p69
(dp70
g4
S'Staff'
p71
sg6
S'Female'
p72
sg8
S'40 - 49'
p73
sg10
g68
sbsS'1022d327b73d9d76caab253cad3c72a4754b4f75'
p74
(i__main__
Info
p75
(dp76
g4
S'Faculty'
p77
sg6
S'Male'
p78
sg8
S'35 - 39'
p79
sg10
g74
sbsS'a991b730ec543977483717703bd975627a049463'
p80
(i__main__
Info
p81
(dp82
g4
S'Freshman'
p83
sg6
S'Male'
p84
sg8
S'18 - 19'
p85
sg10
g80
sbsS'b8f3a4e5fec409319e4ad6f0f52808cde384d76d'
p86
(i__main__
Info
p87
(dp88
g4
g26
sg6
S'Female'
p89
sg8
S'25 - 29'
p90
sg10
g86
sbsS'9af474023514b77877c61b7a9154940ba616f552'
p91
(i__main__
Info
p92
(dp93
g4
S'Freshman'
p94
sg6
S'Male'
p95
sg8
S'18 - 19'
p96
sg10
g91
sbsS'5d616b77589620d397d814ad254c150ff04930d8'
p97
(i__main__
Info
p98
(dp99
g4
S'Sophomore'
p100
sg6
S'Male'
p101
sg8
S'18 - 19'
p102
sg10
g97
sbsS'1bff1330fb38c7d8f40be0961c036e8d44819056'
p103
(i__main__
Info
p104
(dp105
g4
S'Freshman'
p106
sg6
S'Male'
p107
sg8
S'20 - 21'
p108
sg10
g103
sbsS'5f88f79a530d55b32f18b2732a58c59637dd2cef'
p109
(i__main__
Info
p110
(dp111
g4
g26
sg6
S'Male'
p112
sg8
S'22 - 24'
p113
sg10
g109
sbsS'addb1e5993d3ff360bec954cd2ea3f85f874dcdb'
p114
(i__main__
Info
p115
(dp116
g4
S'Faculty'
p117
sg6
S'Male'
p118
sg8
S'50 - 59'
p119
sg10
g114
sbsS'9c415c82a7501ff1329dc8882b73bd8a4b12547f'
p120
(i__main__
Info
p121
(dp122
g4
S'Master'
p123
sg6
S'Male'
p124
sg8
S'25 - 29'
p125
sg10
g120
sbsS'd9965c5d2d39ae94b467811032a59b89a7cb5d69'
p126
(i__main__
Info
p127
(dp128
g4
S'Freshman'
p129
sg6
S'Male'
p130
sg8
S'Under 18'
p131
sg10
g126
sbsS'e63e3a4c83b18b7521b7e8abe3d52671ae158444'
p132
(i__main__
Info
p133
(dp134
g4
S'Faculty'
p135
sg6
S'Female'
p136
sg8
S'40 - 49'
p137
sg10
g132
sbsS'd7c79f18ad05de20cc81af9019f750be77d6e6b8'
p138
(i__main__
Info
p139
(dp140
g4
S'Freshman'
p141
sg6
S'Male'
p142
sg8
S'18 - 19'
p143
sg10
g138
sbsS'6e7a86a2c78b4a504b9cd45f9ed4eee097b58401'
p144
(i__main__
Info
p145
(dp146
g4
S'Sophomore'
p147
sg6
S'Female'
p148
sg8
S'18 - 19'
p149
sg10
g144
sbsS'3bfcc1ecaa7b79a1f8ab596ecb0b59b89d08560e'
p150
(i__main__
Info
p151
(dp152
g4
g123
sg6
S'Female'
p153
sg8
S'50 - 59'
p154
sg10
g150
sbsS'72d150e0da0d98a529423d11591d6ddf6d8673fb'
p155
(i__main__
Info
p156
(dp157
g4
S'Sophomore'
p158
sg6
S'Male'
p159
sg8
S'18 - 19'
p160
sg10
g155
sbsS'17439173f9cd9d55215c9e3aa4a6df224276da6c'
p161
(i__main__
Info
p162
(dp163
g4
S'Freshman'
p164
sg6
S'Male'
p165
sg8
S'18 - 19'
p166
sg10
g161
sbsS'b1b76f39e4bcdf871e96c20ae87023e0b6688432'
p167
(i__main__
Info
p168
(dp169
g4
S'Freshman'
p170
sg6
S'Male'
p171
sg8
S'18 - 19'
p172
sg10
g167
sbsS'471d8d0212f97bee14a9467d371aac4b05f8090c'
p173
(i__main__
Info
p174
(dp175
g4
S'Freshman'
p176
sg6
S'Male'
p177
sg8
S'18 - 19'
p178
sg10
g173
sbsS'b5b62b765541290e1e0100141effda519d2c092d'
p179
(i__main__
Info
p180
(dp181
g4
g26
sg6
S'Male'
p182
sg8
S'25 - 29'
p183
sg10
g179
sbsS'4e664ebeb85d59ea29d4bd1d341953a6467bebab'
p184
(i__main__
Info
p185
(dp186
g4
S'Sophomore'
p187
sg6
S'Female'
p188
sg8
S'18 - 19'
p189
sg10
g184
sbsS'debc35c623162b0afd3d011a4f3906fe0b3c03ba'
p190
(i__main__
Info
p191
(dp192
g4
S'Freshman'
p193
sg6
S'Male'
p194
sg8
S'18 - 19'
p195
sg10
g190
sbsS'b0138c7df1a45184b4a5c8804b14795f716f70f6'
p196
(i__main__
Info
p197
(dp198
g4
S'Freshman'
p199
sg6
S'Male'
p200
sg8
S'22 - 24'
p201
sg10
g196
sbsS'424dc03ff3ce7c3e28b674192168a8750cd066b7'
p202
(i__main__
Info
p203
(dp204
g4
S'Freshman'
p205
sg6
S'Male'
p206
sg8
S'18 - 19'
p207
sg10
g202
sbsS'300c7b34339e5f7fd86ee0cb9c5ed3b40bb2f2b5'
p208
(i__main__
Info
p209
(dp210
g4
S'Sophomore'
p211
sg6
S'Male'
p212
sg8
S'18 - 19'
p213
sg10
g208
sbsS'9c2d0a101609038e9ba88134e2ed930c46a58eef'
p214
(i__main__
Info
p215
(dp216
g4
S'Sophomore'
p217
sg6
S'Male'
p218
sg8
S'18 - 19'
p219
sg10
g214
sbsS'e367a175bfbe39f1be857555228115d80cb9a156'
p220
(i__main__
Info
p221
(dp222
g4
S'Sophomore'
p223
sg6
S'Male'
p224
sg8
S'18 - 19'
p225
sg10
g220
sbsS'141df868f9cc8be8ba60ae78805fd2145144e105'
p226
(i__main__
Info
p227
(dp228
g4
S'Freshman'
p229
sg6
S'Male'
p230
sg8
S'18 - 19'
p231
sg10
g226
sbsS'05fac975428a62ca583a2d6f19cbdf5d9d327a3c'
p232
(i__main__
Info
p233
(dp234
g4
S'Staff'
p235
sg6
S'Female'
p236
sg8
S'40 - 49'
p237
sg10
g232
sbsS'71acaf1ab20de7f6c3b638059946035898809e19'
p238
(i__main__
Info
p239
(dp240
g4
S'Sophomore'
p241
sg6
S'Male'
p242
sg8
S'18 - 19'
p243
sg10
g238
sbsS'a8fc5f8b25378b4a1ad8967244161992149aadec'
p244
(i__main__
Info
p245
(dp246
g4
S'Freshman'
p247
sg6
S'Male'
p248
sg8
S'18 - 19'
p249
sg10
g244
sbsS'21467cb2cacf406d36d8e1fb05d4ff7498ea8706'
p250
(i__main__
Info
p251
(dp252
g4
S'Faculty'
p253
sg6
S'Male'
p254
sg8
S'30 - 34'
p255
sg10
g250
sbsS'b40bcd8b5c26193f94713f575cec5f3f97d0a68a'
p256
(i__main__
Info
p257
(dp258
g4
S'Staff'
p259
sg6
S'Female'
p260
sg8
S'50 - 59'
p261
sg10
g256
sbsS'0e479a11fba79e60444590b16c7d377dcdc89fb9'
p262
(i__main__
Info
p263
(dp264
g4
S'Sophomore'
p265
sg6
S'Male'
p266
sg8
S'18 - 19'
p267
sg10
g262
sbsS'6987404323242ed72802ab700565fd784444cd4c'
p268
(i__main__
Info
p269
(dp270
g4
S'Freshman'
p271
sg6
S'Male'
p272
sg8
S'18 - 19'
p273
sg10
g268
sbsS'58a81318e3a897a35a2973ae2ed72fa6aafc8969'
p274
(i__main__
Info
p275
(dp276
g4
g26
sg6
S'Male'
p277
sg8
S'20 - 21'
p278
sg10
g274
sbsS'c4716197ef00f2eb24ba69090d1d4074b78565c3'
p279
(i__main__
Info
p280
(dp281
g4
g26
sg6
S'Male'
p282
sg8
S'25 - 29'
p283
sg10
g279
sbsS'bf2a460dd824e7e3ed2807982ffbd6eac0e180e4'
p284
(i__main__
Info
p285
(dp286
g4
S'Not Affiliated'
p287
sg6
S'Female'
p288
sg8
S'22 - 24'
p289
sg10
g284
sbsS'6c0ef8dc70de4238bb59c545cf15d1b07d46de0a'
p290
(i__main__
Info
p291
(dp292
g4
S'Sophomore'
p293
sg6
S'Male'
p294
sg8
S'18 - 19'
p295
sg10
g290
sbsS'c427b03b877f69fbbb9e5e598dd27244b7f0705b'
p296
(i__main__
Info
p297
(dp298
g4
g26
sg6
S'Male'
p299
sg8
S'22 - 24'
p300
sg10
g296
sbsS'ee70c62d61fa4a5a6461123066adb2ba47f54f0b'
p301
(i__main__
Info
p302
(dp303
g4
S'Faculty'
p304
sg6
S'Female'
p305
sg8
S'35 - 39'
p306
sg10
g301
sbsS'bd25facedfc1dad068c3153fc4aa218be2007512'
p307
(i__main__
Info
p308
(dp309
g4
S'Freshman'
p310
sg6
S'Female'
p311
sg8
S'Under 18'
p312
sg10
g307
sbsS'83c87fee76617f51084f83e197f12b7cae62c63f'
p313
(i__main__
Info
p314
(dp315
g4
S'Not Affiliated'
p316
sg6
S'Male'
p317
sg8
S'30 - 34'
p318
sg10
g313
sbsS'b9adbf9fee8252093518f4e0179482433527229d'
p319
(i__main__
Info
p320
(dp321
g4
S'Freshman'
p322
sg6
S'Male'
p323
sg8
S'Under 18'
p324
sg10
g319
sbsS'7d552e0eeb0b06e0beb9a70e20d3f6e3802f0dfe'
p325
(i__main__
Info
p326
(dp327
g4
S'Freshman'
p328
sg6
S'Female'
p329
sg8
S'18 - 19'
p330
sg10
g325
sbsS'd5d5668fbae4a8fb8de0392fd892bb3831dd852d'
p331
(i__main__
Info
p332
(dp333
g4
g26
sg6
S'Male'
p334
sg8
S'25 - 29'
p335
sg10
g331
sbsS'29b2a8ac7b1b636324c5bc3b09bb95033ba6994b'
p336
(i__main__
Info
p337
(dp338
g4
S'Freshman'
p339
sg6
S'Male'
p340
sg8
S'18 - 19'
p341
sg10
g336
sbsS'05d546bbd7f015c6bd82d09e7ecdad9afe740da3'
p342
(i__main__
Info
p343
(dp344
g4
S'Freshman'
p345
sg6
S'Male'
p346
sg8
S'18 - 19'
p347
sg10
g342
sbsS'52b6499f4cc71424dde121d230457b076d7b7d59'
p348
(i__main__
Info
p349
(dp350
g4
S'Sophomore'
p351
sg6
S'Male'
p352
sg8
S'20 - 21'
p353
sg10
g348
sbsS'83da223fb57903a0ac997b631ef95fde76f086b4'
p354
(i__main__
Info
p355
(dp356
g4
S'Freshman'
p357
sg6
S'Male'
p358
sg8
S'18 - 19'
p359
sg10
g354
sbsS'09965de9fb912422bf166bab7964fb278f9344e8'
p360
(i__main__
Info
p361
(dp362
g4
g26
sg6
S'Male'
p363
sg8
S'30 - 34'
p364
sg10
g360
sbsS'd9a952bfee423368debf01fcd7fa4bdf29574a74'
p365
(i__main__
Info
p366
(dp367
g4
S'Freshman'
p368
sg6
S'Male'
p369
sg8
S'18 - 19'
p370
sg10
g365
sbsS'325b13a6ec251792e5ab04f2fa8568c6fcced572'
p371
(i__main__
Info
p372
(dp373
g4
g26
sg6
S'Male'
p374
sg8
S'22 - 24'
p375
sg10
g371
sbsS'b8a7fe1033cf08c324118f25c5e54e7387d887bf'
p376
(i__main__
Info
p377
(dp378
g4
S'Freshman'
p379
sg6
S'Male'
p380
sg8
S'18 - 19'
p381
sg10
g376
sbsS'3886320af67cdaa9246a956eb000f2ec07bf2668'
p382
(i__main__
Info
p383
(dp384
g4
S'Sophomore'
p385
sg6
S'Male'
p386
sg8
S'18 - 19'
p387
sg10
g382
sbsS'1f9df7564e4c5f2ac44c6960487740cbc596c1ee'
p388
(i__main__
Info
p389
(dp390
g4
S'Freshman'
p391
sg6
S'Male'
p392
sg8
S'20 - 21'
p393
sg10
g388
sbsS'eaa6a66c4f71f35c9aa769a7c3771c0e6790bd1b'
p394
(i__main__
Info
p395
(dp396
g4
S'Freshman'
p397
sg6
S'Male'
p398
sg8
S'18 - 19'
p399
sg10
g394
sbsS'c71089af01f858ed7bbe334f7fdc51e8012806a2'
p400
(i__main__
Info
p401
(dp402
g4
g26
sg6
S'Female'
p403
sg8
S'25 - 29'
p404
sg10
g400
sbsS'b2b89af58e4da5dbcb6aab83c6c64ca59236883a'
p405
(i__main__
Info
p406
(dp407
g4
S'Faculty'
p408
sg6
S'Female'
p409
sg8
S'Over 60'
p410
sg10
g405
sbsS'7f0afda08470ecf6f035d523a23205bdfa2f6a81'
p411
(i__main__
Info
p412
(dp413
g4
S'Faculty'
p414
sg6
S'Male'
p415
sg8
S'35 - 39'
p416
sg10
g411
sbsS'05a9337ad641d0c5fd023f7c0cde1df1d8928a50'
p417
(i__main__
Info
p418
(dp419
g4
g26
sg6
S'Male'
p420
sg8
S'25 - 29'
p421
sg10
g417
sbsS'b820b364377c61f3ab10d8d525aebd71e61f2314'
p422
(i__main__
Info
p423
(dp424
g4
g26
sg6
S'Male'
p425
sg8
S'22 - 24'
p426
sg10
g422
sbsS'ed1c5e4da101b0ed82b91fd17e1b528e6d6fd438'
p427
(i__main__
Info
p428
(dp429
g4
S'Not Affiliated'
p430
sg6
S'Male'
p431
sg8
S'30 - 34'
p432
sg10
g427
sbsS'd1fc8be4fd59ba684bbd0221a35bbdaf6713a500'
p433
(i__main__
Info
p434
(dp435
g4
S'Sophomore'
p436
sg6
S'Male'
p437
sg8
S'18 - 19'
p438
sg10
g433
sbsS'2a0185e1bd9a266f7295698ae813bd56ad3b7b05'
p439
(i__main__
Info
p440
(dp441
g4
g26
sg6
S'Female'
p442
sg8
S'30 - 34'
p443
sg10
g439
sbsS'1b80657fbaa2444f1c37fbce12f3027e2e387afb'
p444
(i__main__
Info
p445
(dp446
g4
g26
sg6
S'Male'
p447
sg8
S'30 - 34'
p448
sg10
g444
sbsS'97e2684bd021c35a3212af267cf66617903f125e'
p449
(i__main__
Info
p450
(dp451
g4
S'Sophomore'
p452
sg6
S'Male'
p453
sg8
S'18 - 19'
p454
sg10
g449
sbsS'f95a1b507b2be58b0da2b2d963cc375693b9f8fd'
p455
(i__main__
Info
p456
(dp457
g4
S'Freshman'
p458
sg6
S'Male'
p459
sg8
S'Under 18'
p460
sg10
g455
sbsS'5d42579bf955f84840cc97362e2f9444dce9ddef'
p461
(i__main__
Info
p462
(dp463
g4
S'Freshman'
p464
sg6
S'Male'
p465
sg8
S'18 - 19'
p466
sg10
g461
sbsS'4e1b9a7bfab08f110b2dbf4faa0f8e8df2ed1211'
p467
(i__main__
Info
p468
(dp469
g4
S'Freshman'
p470
sg6
S'Male'
p471
sg8
S'18 - 19'
p472
sg10
g467
sbsS'ca8095e81714982f789181b03924a6c2f27e119d'
p473
(i__main__
Info
p474
(dp475
g4
S'Freshman'
p476
sg6
S'Female'
p477
sg8
S'18 - 19'
p478
sg10
g473
sbsS'26312cb7505c9ec8fbce10eafdcbca4d44c212b6'
p479
(i__main__
Info
p480
(dp481
g4
S'Freshman'
p482
sg6
S'Male'
p483
sg8
S'18 - 19'
p484
sg10
g479
sbsS'698e20df3bd62f30d4525159df83f3edd113b032'
p485
(i__main__
Info
p486
(dp487
g4
S'Freshman'
p488
sg6
S'Female'
p489
sg8
S'18 - 19'
p490
sg10
g485
sbsS'50c457d696e2ddd89b588075c81d3a53d6b21928'
p491
(i__main__
Info
p492
(dp493
g4
S'Freshman'
p494
sg6
S'Male'
p495
sg8
S'18 - 19'
p496
sg10
g491
sbsS'1885c8454e126c658cd66f43794d184ad4b19adb'
p497
(i__main__
Info
p498
(dp499
g4
g26
sg6
S'Male'
p500
sg8
S'35 - 39'
p501
sg10
g497
sbsS'7abd0c8221de1895bf50962201eaf75192ee4085'
p502
(i__main__
Info
p503
(dp504
g4
S'Freshman'
p505
sg6
S'Male'
p506
sg8
S'Under 18'
p507
sg10
g502
sbsS'3b561dbe5c3e3c8ffce8720afb08aaab5e88ca91'
p508
(i__main__
Info
p509
(dp510
g4
g26
sg6
S'Female'
p511
sg8
S'30 - 34'
p512
sg10
g508
sbsS'7aae2d20b6cf27bc63eafe4132c88c02a38a2f04'
p513
(i__main__
Info
p514
(dp515
g4
S'Staff'
p516
sg6
S'Male'
p517
sg8
S'25 - 29'
p518
sg10
g513
sbsS'8925052990b2e83fe6f7557ecf5ef8679b530690'
p519
(i__main__
Info
p520
(dp521
g4
g26
sg6
S'Male'
p522
sg8
S'25 - 29'
p523
sg10
g519
sbsS'8ac595b768cbf2b97d127db697156210c5e0b808'
p524
(i__main__
Info
p525
(dp526
g4
S'Freshman'
p527
sg6
S'Male'
p528
sg8
S'18 - 19'
p529
sg10
g524
sbsS'8d55ea1c534ff0ce4af27e1130d4630e3fad0229'
p530
(i__main__
Info
p531
(dp532
g4
S'Freshman'
p533
sg6
S'Male'
p534
sg8
S'18 - 19'
p535
sg10
g530
sbsS'69c0ff929c19f9e945d91f49087f64add384d494'
p536
(i__main__
Info
p537
(dp538
g4
g26
sg6
S'Female'
p539
sg8
S'25 - 29'
p540
sg10
g536
sbsS'536cdd669fd1de8fffad5f43c7b0c4d55e5e15aa'
p541
(i__main__
Info
p542
(dp543
g4
S'Sophomore'
p544
sg6
S'Male'
p545
sg8
S'18 - 19'
p546
sg10
g541
sbsS'c5cc241055806b19e283d1a9eeb58b2ef2e160f5'
p547
(i__main__
Info
p548
(dp549
g4
S'Not Affiliated'
p550
sg6
S'Male'
p551
sg8
S'25 - 29'
p552
sg10
g547
sbsS'3f73c79cfffccc560a28ef69272308f312c9119b'
p553
(i__main__
Info
p554
(dp555
g4
S'Sophomore'
p556
sg6
S'Male'
p557
sg8
S'18 - 19'
p558
sg10
g553
sbsS'e57d86fa20733c767cfad0e70c1df7f0076a8118'
p559
(i__main__
Info
p560
(dp561
g4
g26
sg6
S'Male'
p562
sg8
S'22 - 24'
p563
sg10
g559
sbsS'1e761cbd0dd769609a7d406e693b727f7af42c04'
p564
(i__main__
Info
p565
(dp566
g4
S'Freshman'
p567
sg6
S'Male'
p568
sg8
S'18 - 19'
p569
sg10
g564
sbsS'bf496c47a2430c7618b8b2dc0cb7b3113a6c7675'
p570
(i__main__
Info
p571
(dp572
g4
S'Sophomore'
p573
sg6
S'Male'
p574
sg8
S'20 - 21'
p575
sg10
g570
sbsS'c1cd06b30880f8cd26712d0be26cd9767b8a6cea'
p576
(i__main__
Info
p577
(dp578
g4
S'Sophomore'
p579
sg6
S'Male'
p580
sg8
S'18 - 19'
p581
sg10
g576
sbsS'848790ba52e1e8ec92be246cc7a11e4b56324ec3'
p582
(i__main__
Info
p583
(dp584
g4
S'Freshman'
p585
sg6
S'Male'
p586
sg8
S'Under 18'
p587
sg10
g582
sbsS'c3791e680c089cef7d4c52a82ef5e47ae4d5c99b'
p588
(i__main__
Info
p589
(dp590
g4
S'Freshman'
p591
sg6
S'Male'
p592
sg8
S'18 - 19'
p593
sg10
g588
sbsS'd898d903596e184de845793afe1a4c28f8d9866a'
p594
(i__main__
Info
p595
(dp596
g4
g26
sg6
S'Male'
p597
sg8
S'25 - 29'
p598
sg10
g594
sbsS'5daff968352233c57457814e0e6d3d0544abb8dd'
p599
(i__main__
Info
p600
(dp601
g4
S'Faculty'
p602
sg6
S'Male'
p603
sg8
S'50 - 59'
p604
sg10
g599
sbsS'fa96fd2d82eecdc29cad8127fd7d92e3e8649267'
p605
(i__main__
Info
p606
(dp607
g4
S'Faculty'
p608
sg6
S'Male'
p609
sg8
S'40 - 49'
p610
sg10
g605
sbsS'ce075b1ed30b96e9dabf705cf59f605efaf94796'
p611
(i__main__
Info
p612
(dp613
g4
g26
sg6
S'Male'
p614
sg8
S'30 - 34'
p615
sg10
g611
sbsS'a3479167cadbd075b2dd3669db3da65054f1da52'
p616
(i__main__
Info
p617
(dp618
g4
g26
sg6
S'Male'
p619
sg8
S'22 - 24'
p620
sg10
g616
sbsS'b054255fddec941b365df938dc3244ded42cd1b9'
p621
(i__main__
Info
p622
(dp623
g4
S'Freshman'
p624
sg6
S'Male'
p625
sg8
S'18 - 19'
p626
sg10
g621
sbsS'cf8b5efd7b6a97af8ff920ec14f3bb2bf7aa6866'
p627
(i__main__
Info
p628
(dp629
g4
g26
sg6
S'Male'
p630
sg8
S'22 - 24'
p631
sg10
g627
sbsS'633e6316d80f2a36c79f079203fe7bb55583a131'
p632
(i__main__
Info
p633
(dp634
g4
S'Senior'
p635
sg6
S'Male'
p636
sg8
S'20 - 21'
p637
sg10
g632
sbsS'17949023c6f10268b4c0c7a7852f01bbdeaa6f90'
p638
(i__main__
Info
p639
(dp640
g4
g26
sg6
S'Male'
p641
sg8
S'20 - 21'
p642
sg10
g638
sbsS'8762af4c02ebae711268fe2193bb13e24465e5fe'
p643
(i__main__
Info
p644
(dp645
g4
g26
sg6
S'Male'
p646
sg8
S'25 - 29'
p647
sg10
g643
sbsS'6061b9e7a4078be372b8aabf4706b5770c14d6d9'
p648
(i__main__
Info
p649
(dp650
g4
S'Freshman'
p651
sg6
S'Male'
p652
sg8
S'18 - 19'
p653
sg10
g648
sbsS'9d8e3a32775738981672948b6e54cd96623941d3'
p654
(i__main__
Info
p655
(dp656
g4
S'Freshman'
p657
sg6
S'Male'
p658
sg8
S'18 - 19'
p659
sg10
g654
sbsS'472772b4b05acda66e0b42895027bd91a56842d6'
p660
(i__main__
Info
p661
(dp662
g4
S'Staff'
p663
sg6
S'Male'
p664
sg8
S'40 - 49'
p665
sg10
g660
sbsS'a7507fe6fca55f1b89a3b21549e08fe24c309799'
p666
(i__main__
Info
p667
(dp668
g4
g26
sg6
S'Male'
p669
sg8
S'25 - 29'
p670
sg10
g666
sbsS'11edfb138e226a1f4dac0d31293cc22733f56957'
p671
(i__main__
Info
p672
(dp673
g4
S'Freshman'
p674
sg6
S'Female'
p675
sg8
S'18 - 19'
p676
sg10
g671
sbsS'da822b229a868bfe8960c26a45e460430e15cb75'
p677
(i__main__
Info
p678
(dp679
g4
S'Sophomore'
p680
sg6
S'Male'
p681
sg8
S'18 - 19'
p682
sg10
g677
sbsS'41f1a45581e3c2ed833fb7c3c334195ffc049bae'
p683
(i__main__
Info
p684
(dp685
g4
S'Sophomore'
p686
sg6
S'Male'
p687
sg8
S'20 - 21'
p688
sg10
g683
sbsS'f8bd4596de6bb09bf8b58d20d7d158c3c847e75b'
p689
(i__main__
Info
p690
(dp691
g4
S'Freshman'
p692
sg6
S'Male'
p693
sg8
S'18 - 19'
p694
sg10
g689
sbsS'7606547a5e6a9cf20a5f87a9335e02a51f6d9391'
p695
(i__main__
Info
p696
(dp697
g4
g26
sg6
S'Female'
p698
sg8
S'22 - 24'
p699
sg10
g695
sbsS'9f96ee1d96086a508117b6656df27778cf92e572'
p700
(i__main__
Info
p701
(dp702
g4
S'Staff'
p703
sg6
S'Female'
p704
sg8
S'50 - 59'
p705
sg10
g700
sbsS'852937332d080230d960c941ba219ca3e927d2a8'
p706
(i__main__
Info
p707
(dp708
g4
S'Staff'
p709
sg6
S'Female'
p710
sg8
S'50 - 59'
p711
sg10
g706
sbsS'1d1f4762cfeddcf02d7a038d523f7839360addd0'
p712
(i__main__
Info
p713
(dp714
g4
g26
sg6
S'Male'
p715
sg8
S'22 - 24'
p716
sg10
g712
sbsS'351620bf3197f8e9d0d5d6f89cf70dec9aad4c86'
p717
(i__main__
Info
p718
(dp719
g4
g26
sg6
S'Male'
p720
sg8
S'25 - 29'
p721
sg10
g717
sbsS'41db811b4ee765b9c86b21f41023b21b20810c9f'
p722
(i__main__
Info
p723
(dp724
g4
g26
sg6
S'Male'
p725
sg8
S'20 - 21'
p726
sg10
g722
sbsS'd08bc4e7a39c825a900e3576a64e8890bf7584c3'
p727
(i__main__
Info
p728
(dp729
g4
g26
sg6
S'Male'
p730
sg8
S'25 - 29'
p731
sg10
g727
sbsS'2837fec5ceebd117d9dd5d8d5265a999f7365735'
p732
(i__main__
Info
p733
(dp734
g4
S'Freshman'
p735
sg6
S'Male'
p736
sg8
S'18 - 19'
p737
sg10
g732
sbsS'2944fce67fb77a64fbbba7200bc71a9065645726'
p738
(i__main__
Info
p739
(dp740
g4
S'Staff'
p741
sg6
S'Female'
p742
sg8
S'40 - 49'
p743
sg10
g738
sbsS'876aae0ea6f37870801b46631226e8812ab47e66'
p744
(i__main__
Info
p745
(dp746
g4
g26
sg6
S'Female'
p747
sg8
S'25 - 29'
p748
sg10
g744
sbsS'03ae9c0a7db673bcc8681fe8d6d7f8d881651f8d'
p749
(i__main__
Info
p750
(dp751
g4
g26
sg6
S'Female'
p752
sg8
S'35 - 39'
p753
sg10
g749
sbsS'85742abe414bad882d36fd5c40e28261b9319b17'
p754
(i__main__
Info
p755
(dp756
g4
g26
sg6
S'Male'
p757
sg8
S'25 - 29'
p758
sg10
g754
sbsS'ab9e337a0296b51931a448468a7a4b5ef489dd68'
p759
(i__main__
Info
p760
(dp761
g4
S'Freshman'
p762
sg6
S'Male'
p763
sg8
S'18 - 19'
p764
sg10
g759
sbsS'095fa93c8d6d5f5a397dc7983c18cdf46b583575'
p765
(i__main__
Info
p766
(dp767
g4
S'Freshman'
p768
sg6
S'Male'
p769
sg8
S'18 - 19'
p770
sg10
g765
sbsS'76de46893c55234d0f7737e304d88c7a01843107'
p771
(i__main__
Info
p772
(dp773
g4
S'Freshman'
p774
sg6
S'Female'
p775
sg8
S'Under 18'
p776
sg10
g771
sbsS'64d79b757b5d1826e51ee36eab3d1a3e014667c9'
p777
(i__main__
Info
p778
(dp779
g4
g26
sg6
S'Male'
p780
sg8
S'30 - 34'
p781
sg10
g777
sbsS'3688d40a7c2ceac75ccd763fdae26c54777ca831'
p782
(i__main__
Info
p783
(dp784
g4
S'Freshman'
p785
sg6
S'Male'
p786
sg8
S'Under 18'
p787
sg10
g782
sbsS'4fc623fb9bc167e31ad73ecdc894af6518c85345'
p788
(i__main__
Info
p789
(dp790
g4
g123
sg6
S'Male'
p791
sg8
S'22 - 24'
p792
sg10
g788
sbsS'4f9be262d273a64c7a3ebb089048bff010e7071d'
p793
(i__main__
Info
p794
(dp795
g4
g26
sg6
S'Male'
p796
sg8
S'30 - 34'
p797
sg10
g793
sbsS'b9f59566b40a1ce760976fdef7339b4671d940c9'
p798
(i__main__
Info
p799
(dp800
g4
S'Freshman'
p801
sg6
S'Female'
p802
sg8
S'18 - 19'
p803
sg10
g798
sbsS'141b355defeacd5cb1ec70d0c35cd86c5d4adfca'
p804
(i__main__
Info
p805
(dp806
g4
S'Freshman'
p807
sg6
S'Male'
p808
sg8
S'18 - 19'
p809
sg10
g804
sbsS'ec7eec49afe4034f9c9cd94d957b09018f35bf17'
p810
(i__main__
Info
p811
(dp812
g4
S'Freshman'
p813
sg6
S'Male'
p814
sg8
S'22 - 24'
p815
sg10
g810
sbsS'8217ec227199872c961d15c037bff310fa4b3660'
p816
(i__main__
Info
p817
(dp818
g4
S'Sophomore'
p819
sg6
S'Male'
p820
sg8
S'20 - 21'
p821
sg10
g816
sbsS'6d756e98682e382fc53769f9f8467e28a546151c'
p822
(i__main__
Info
p823
(dp824
g4
g26
sg6
S'Male'
p825
sg8
S'30 - 34'
p826
sg10
g822
sbsS'703e9bbcdc19deeecf6f7cccf5ef48e30254b9e9'
p827
(i__main__
Info
p828
(dp829
g4
S'Sophomore'
p830
sg6
S'Male'
p831
sg8
S'18 - 19'
p832
sg10
g827
sbsS'd52b74f36d015cf66399dd25806a65a6385537cd'
p833
(i__main__
Info
p834
(dp835
g4
S'Not Affiliated'
p836
sg6
S'Female'
p837
sg8
S'40 - 49'
p838
sg10
g833
sbsS'130e9c48757e33741beae762be7f8d6242f48b47'
p839
(i__main__
Info
p840
(dp841
g4
S'Faculty'
p842
sg6
S'Male'
p843
sg8
S'35 - 39'
p844
sg10
g839
sbsS'77357e6cee5987da0ea04d7a3287275de1205057'
p845
(i__main__
Info
p846
(dp847
g4
S'Faculty'
p848
sg6
S'Male'
p849
sg8
S'30 - 34'
p850
sg10
g845
sbsS'693f6a33bedd18b37f0618bf62832717707e37dd'
p851
(i__main__
Info
p852
(dp853
g4
S'Sophomore'
p854
sg6
S'Male'
p855
sg8
S'18 - 19'
p856
sg10
g851
sbsS'2c0d93b348866399eb6ee178e01518a3b6183a8a'
p857
(i__main__
Info
p858
(dp859
g4
g123
sg6
S'Male'
p860
sg8
S'22 - 24'
p861
sg10
g857
sbsS'0fa00f8fec8f54acad3a8892843b856b549bb222'
p862
(i__main__
Info
p863
(dp864
g4
g26
sg6
S'Male'
p865
sg8
S'22 - 24'
p866
sg10
g862
sbsS'e40d619b1279681eaa4b11ff087119f430ce4378'
p867
(i__main__
Info
p868
(dp869
g4
S'Sophomore'
p870
sg6
S'Male'
p871
sg8
S'18 - 19'
p872
sg10
g867
sbsS'dee5b4e63585713f815add8e1d017e4ca1505c54'
p873
(i__main__
Info
p874
(dp875
g4
g26
sg6
S'Female'
p876
sg8
S'22 - 24'
p877
sg10
g873
sbsS'ef73bcb3ca6da2ce33cd56398c555fad7fa1a39c'
p878
(i__main__
Info
p879
(dp880
g4
g26
sg6
S'Male'
p881
sg8
S'25 - 29'
p882
sg10
g878
sbsS'c4e225303668750eeaea4dd65464f4c42eb2bd32'
p883
(i__main__
Info
p884
(dp885
g4
S'Faculty'
p886
sg6
S'Female'
p887
sg8
S'50 - 59'
p888
sg10
g883
sbsS'be68a71d1429b45960ab213e1c48723a0694dc4a'
p889
(i__main__
Info
p890
(dp891
g4
S'Staff'
p892
sg6
S'Female'
p893
sg8
S'40 - 49'
p894
sg10
g889
sbsS'c7ca4189ad01ec9627ea5fb76db6ec0702ee28e5'
p895
(i__main__
Info
p896
(dp897
g4
S'Sophomore'
p898
sg6
S'Male'
p899
sg8
S'Under 18'
p900
sg10
g895
sbsS'96d44be8425a00f514ca91d5354c94060d6a7c24'
p901
(i__main__
Info
p902
(dp903
g4
S'Staff'
p904
sg6
S'Female'
p905
sg8
S'40 - 49'
p906
sg10
g901
sbsS'671d6b6abe0559c90992b4f92fc7368892a8c62a'
p907
(i__main__
Info
p908
(dp909
g4
g26
sg6
S'Female'
p910
sg8
S'25 - 29'
p911
sg10
g907
sbsS'4387434bc6180664f2b0f650ede852f5a02e3cac'
p912
(i__main__
Info
p913
(dp914
g4
S'Professional'
p915
sg6
S'Male'
p916
sg8
S'25 - 29'
p917
sg10
g912
sbsS'174586b0721cb4c473a20e8cbf817124f8655706'
p918
(i__main__
Info
p919
(dp920
g4
S'Faculty'
p921
sg6
S'Male'
p922
sg8
S'40 - 49'
p923
sg10
g918
sbsS'cd4b2cee2704b419d51fcc3cf12da47f0f098c87'
p924
(i__main__
Info
p925
(dp926
g4
S'Freshman'
p927
sg6
S'Female'
p928
sg8
S'18 - 19'
p929
sg10
g924
sbsS'bdc7cf1e24b0ab13205f9d1980143e997612ef69'
p930
(i__main__
Info
p931
(dp932
g4
g26
sg6
S'Male'
p933
sg8
S'25 - 29'
p934
sg10
g930
sbsS'0ffaf2a38e052f08f9ae5f56ef4cb85b571ed5c7'
p935
(i__main__
Info
p936
(dp937
g4
g26
sg6
S'Female'
p938
sg8
S'25 - 29'
p939
sg10
g935
sbsS'86d7bc69f05af1cb70cb38510e7c2dc9a94e476d'
p940
(i__main__
Info
p941
(dp942
g4
S'Freshman'
p943
sg6
S'Female'
p944
sg8
S'18 - 19'
p945
sg10
g940
sbsS'7faf727d093a1cad8e04b6a17196656d682382c2'
p946
(i__main__
Info
p947
(dp948
g4
S'Staff'
p949
sg6
S'Female'
p950
sg8
S'30 - 34'
p951
sg10
g946
sbsS'dcd4ea58b0f89545fa07d543a660493041b765c6'
p952
(i__main__
Info
p953
(dp954
g4
g26
sg6
S'Male'
p955
sg8
S'25 - 29'
p956
sg10
g952
sbsS'5721951bf4c867107073c6c39aca5e61134f44c4'
p957
(i__main__
Info
p958
(dp959
g4
S'Freshman'
p960
sg6
S'Male'
p961
sg8
S'18 - 19'
p962
sg10
g957
sbsS'43a739a969a2d66cb6687dd537214e9a0bf3aa09'
p963
(i__main__
Info
p964
(dp965
g4
S'Staff'
p966
sg6
S'Female'
p967
sg8
S'30 - 34'
p968
sg10
g963
sbsS'3844ad32f0bce2e111d6a063c80d49e6c942955a'
p969
(i__main__
Info
p970
(dp971
g4
S'Sophomore'
p972
sg6
S'Female'
p973
sg8
S'Under 18'
p974
sg10
g969
sbsS'3ddb921496c26db81aa7022893f07656e996b6e4'
p975
(i__main__
Info
p976
(dp977
g4
g26
sg6
S'Male'
p978
sg8
S'30 - 34'
p979
sg10
g975
sbsS'd9d265de5ec6df2a0f64866848f0d405ec5821bc'
p980
(i__main__
Info
p981
(dp982
g4
g915
sg6
S'Male'
p983
sg8
S'22 - 24'
p984
sg10
g980
sbsS'ae0224dec23a1845010bfcc17ef2de90f989afa2'
p985
(i__main__
Info
p986
(dp987
g4
S'Freshman'
p988
sg6
S'Female'
p989
sg8
S'18 - 19'
p990
sg10
g985
sbsS'00b5aef29eecac726dc36f0daf6fd24df1c3bb43'
p991
(i__main__
Info
p992
(dp993
g4
g26
sg6
S'Male'
p994
sg8
S'20 - 21'
p995
sg10
g991
sbsS'436090a381b35bf65a49000d035b721e547cac7f'
p996
(i__main__
Info
p997
(dp998
g4
S'Sophomore'
p999
sg6
S'Male'
p1000
sg8
S'18 - 19'
p1001
sg10
g996
sbsS'625abf8eba9d49c7aecdeab8c7e43e1a61802275'
p1002
(i__main__
Info
p1003
(dp1004
g4
S'Sophomore'
p1005
sg6
S'Male'
p1006
sg8
S'18 - 19'
p1007
sg10
g1002
sbsS'8bdf35ef2b8e9a1fbc2f31a7abc496d4a3076d3f'
p1008
(i__main__
Info
p1009
(dp1010
g4
S'Sophomore'
p1011
sg6
S'Male'
p1012
sg8
S'20 - 21'
p1013
sg10
g1008
sbsS'f56c82a9e552ea985c9179e22e5418db46609b35'
p1014
(i__main__
Info
p1015
(dp1016
g4
S'Freshman'
p1017
sg6
S'Female'
p1018
sg8
S'22 - 24'
p1019
sg10
g1014
sbsS'bf42e9f4379fb735ae269185865c6b986a7b1424'
p1020
(i__main__
Info
p1021
(dp1022
g4
S'Freshman'
p1023
sg6
S'Male'
p1024
sg8
S'18 - 19'
p1025
sg10
g1020
sbsS'15943939b9830218bd26a9e8cf2020e1fd0dd46e'
p1026
(i__main__
Info
p1027
(dp1028
g4
S'Freshman'
p1029
sg6
S'Female'
p1030
sg8
S'18 - 19'
p1031
sg10
g1026
sbsS'8a2896c0805f2cb87a363d6c89304c2bacfae359'
p1032
(i__main__
Info
p1033
(dp1034
g4
g26
sg6
S'Male'
p1035
sg8
S'30 - 34'
p1036
sg10
g1032
sbsS'9db63d61bf0614ff09aabd74b36ef572036cf574'
p1037
(i__main__
Info
p1038
(dp1039
g4
S'Freshman'
p1040
sg6
S'Male'
p1041
sg8
S'18 - 19'
p1042
sg10
g1037
sbsS'933ecae7e3b63ef1fc0fb22aa54abb5ef730fa98'
p1043
(i__main__
Info
p1044
(dp1045
g4
S'Junior'
p1046
sg6
S'Female'
p1047
sg8
S'22 - 24'
p1048
sg10
g1043
sbsS'f6bfda82f1c30311bc0b991abad7881456a8d9c0'
p1049
(i__main__
Info
p1050
(dp1051
g4
S'Staff'
p1052
sg6
S'Female'
p1053
sg8
S'40 - 49'
p1054
sg10
g1049
sbsS'b8ec929c1fbdbc43f9d3c889170e1b55a0d94652'
p1055
(i__main__
Info
p1056
(dp1057
g4
S'Sophomore'
p1058
sg6
S'Female'
p1059
sg8
S'18 - 19'
p1060
sg10
g1055
sbsS'c0b73068edc44535d3545582b6dc690cbee12cc5'
p1061
(i__main__
Info
p1062
(dp1063
g4
g26
sg6
S'Male'
p1064
sg8
S'25 - 29'
p1065
sg10
g1061
sbsS'c16dc2630ec765d7240fb5abd3ace0b7ef780ccb'
p1066
(i__main__
Info
p1067
(dp1068
g4
g26
sg6
S'Male'
p1069
sg8
S'22 - 24'
p1070
sg10
g1066
sbsS'142d0e1e9a036df7d531ff1f3e3d977bab29c358'
p1071
(i__main__
Info
p1072
(dp1073
g4
S'Freshman'
p1074
sg6
S'Female'
p1075
sg8
S'18 - 19'
p1076
sg10
g1071
sbsS'90d8e13af461e000dc2d81a995dd8fd989847c95'
p1077
(i__main__
Info
p1078
(dp1079
g4
g123
sg6
S'Female'
p1080
sg8
S'22 - 24'
p1081
sg10
g1077
sbsS'5e5cebc642505d92050f88e7cc5f5b4365c7d20c'
p1082
(i__main__
Info
p1083
(dp1084
g4
S'Freshman'
p1085
sg6
S'Male'
p1086
sg8
S'18 - 19'
p1087
sg10
g1082
sbsS'3cd6b1a65286ff8b18a392a10db23a362f8b670b'
p1088
(i__main__
Info
p1089
(dp1090
g4
S'Freshman'
p1091
sg6
S'Male'
p1092
sg8
S'18 - 19'
p1093
sg10
g1088
sbs.