(dp0
S'a38d195bf61a1381e01abd5a9deda95d8e254ba2'
p1
(i__main__
Info
p2
(dp3
S'standing'
p4
S'Freshman'
p5
sS'gender'
p6
S'Male'
p7
sS'ageband'
p8
S'40 - 49'
p9
sS'hashed_meid'
p10
g1
sbsS'36d4d50f20a8c6c515b94ef54999c4dcb2f06393'
p11
(i__main__
Info
p12
(dp13
g4
S'Sophomore'
p14
sg6
S'Male'
p15
sg8
S'18 - 19'
p16
sg10
g11
sbsS'7d27bc4cea99ce72041b14640511c6b233fab832'
p17
(i__main__
Info
p18
(dp19
g4
S'Sophomore'
p20
sg6
S'Female'
p21
sg8
S'18 - 19'
p22
sg10
g17
sbsS'028e2e9fe3c1a408e4ea0bdc932dc09b87692946'
p23
(i__main__
Info
p24
(dp25
g4
S'PhD'
p26
sg6
S'Male'
p27
sg8
S'25 - 29'
p28
sg10
g23
sbsS'acac79faf66e39f37c2fd6f931d2f1aef27be32c'
p29
(i__main__
Info
p30
(dp31
g4
S'Sophomore'
p32
sg6
S'Female'
p33
sg8
S'18 - 19'
p34
sg10
g29
sbsS'26605c7b8472c4a6975e711574dc7be727a9e9cb'
p35
(i__main__
Info
p36
(dp37
g4
S'Freshman'
p38
sg6
S'Male'
p39
sg8
S'Under 18'
p40
sg10
g35
sbsS'3a5b2aec09df49345a3446f1e4da9946d822557f'
p41
(i__main__
Info
p42
(dp43
g4
S'Faculty'
p44
sg6
S'Female'
p45
sg8
S'30 - 34'
p46
sg10
g41
sbsS'39c42a753a67323907e8c5e44314e1d65544c945'
p47
(i__main__
Info
p48
(dp49
g4
g26
sg6
S'Male'
p50
sg8
S'22 - 24'
p51
sg10
g47
sbsS'54e5ba121e82a1a0f4a9330fa7f959a241b40602'
p52
(i__main__
Info
p53
(dp54
g4
S'Freshman'
p55
sg6
S'Male'
p56
sg8
S'Under 18'
p57
sg10
g52
sbsS'f1b3bc6463386de4dbfd8e5321bcb0490658c50d'
p58
(i__main__
Info
p59
(dp60
g4
g26
sg6
S'Male'
p61
sg8
S'25 - 29'
p62
sg10
g58
sbsS'83417a40cf55d9ad430ff4bcdf0a1de2ef66b651'
p63
(i__main__
Info
p64
(dp65
g4
g26
sg6
S'Male'
p66
sg8
S'40 - 49'
p67
sg10
g63
sbsS'b52f8655c158932b01939b49f1b118ff8aa3e962'
p68
(i__main__
Info
p69
(dp70
g4
S'Staff'
p71
sg6
S'Female'
p72
sg8
S'40 - 49'
p73
sg10
g68
sbsS'1022d327b73d9d76caab253cad3c72a4754b4f75'
p74
(i__main__
Info
p75
(dp76
g4
S'Faculty'
p77
sg6
S'Male'
p78
sg8
S'35 - 39'
p79
sg10
g74
sbsS'a991b730ec543977483717703bd975627a049463'
p80
(i__main__
Info
p81
(dp82
g4
S'Freshman'
p83
sg6
S'Male'
p84
sg8
S'18 - 19'
p85
sg10
g80
sbsS'b8f3a4e5fec409319e4ad6f0f52808cde384d76d'
p86
(i__main__
Info
p87
(dp88
g4
g26
sg6
S'Female'
p89
sg8
S'25 - 29'
p90
sg10
g86
sbsS'9af474023514b77877c61b7a9154940ba616f552'
p91
(i__main__
Info
p92
(dp93
g4
S'Freshman'
p94
sg6
S'Male'
p95
sg8
S'18 - 19'
p96
sg10
g91
sbsS'5d616b77589620d397d814ad254c150ff04930d8'
p97
(i__main__
Info
p98
(dp99
g4
S'Sophomore'
p100
sg6
S'Male'
p101
sg8
S'18 - 19'
p102
sg10
g97
sbsS'1bff1330fb38c7d8f40be0961c036e8d44819056'
p103
(i__main__
Info
p104
(dp105
g4
S'Freshman'
p106
sg6
S'Male'
p107
sg8
S'20 - 21'
p108
sg10
g103
sbsS'5f88f79a530d55b32f18b2732a58c59637dd2cef'
p109
(i__main__
Info
p110
(dp111
g4
g26
sg6
S'Male'
p112
sg8
S'22 - 24'
p113
sg10
g109
sbsS'addb1e5993d3ff360bec954cd2ea3f85f874dcdb'
p114
(i__main__
Info
p115
(dp116
g4
S'Faculty'
p117
sg6
S'Male'
p118
sg8
S'50 - 59'
p119
sg10
g114
sbsS'9c415c82a7501ff1329dc8882b73bd8a4b12547f'
p120
(i__main__
Info
p121
(dp122
g4
S'Master'
p123
sg6
S'Male'
p124
sg8
S'25 - 29'
p125
sg10
g120
sbsS'd9965c5d2d39ae94b467811032a59b89a7cb5d69'
p126
(i__main__
Info
p127
(dp128
g4
S'Freshman'
p129
sg6
S'Male'
p130
sg8
S'Under 18'
p131
sg10
g126
sbsS'e63e3a4c83b18b7521b7e8abe3d52671ae158444'
p132
(i__main__
Info
p133
(dp134
g4
S'Faculty'
p135
sg6
S'Female'
p136
sg8
S'40 - 49'
p137
sg10
g132
sbsS'd7c79f18ad05de20cc81af9019f750be77d6e6b8'
p138
(i__main__
Info
p139
(dp140
g4
S'Freshman'
p141
sg6
S'Male'
p142
sg8
S'18 - 19'
p143
sg10
g138
sbsS'6e7a86a2c78b4a504b9cd45f9ed4eee097b58401'
p144
(i__main__
Info
p145
(dp146
g4
S'Sophomore'
p147
sg6
S'Female'
p148
sg8
S'18 - 19'
p149
sg10
g144
sbsS'3bfcc1ecaa7b79a1f8ab596ecb0b59b89d08560e'
p150
(i__main__
Info
p151
(dp152
g4
g123
sg6
S'Female'
p153
sg8
S'50 - 59'
p154
sg10
g150
sbsS'72d150e0da0d98a529423d11591d6ddf6d8673fb'
p155
(i__main__
Info
p156
(dp157
g4
S'Sophomore'
p158
sg6
S'Male'
p159
sg8
S'18 - 19'
p160
sg10
g155
sbsS'17439173f9cd9d55215c9e3aa4a6df224276da6c'
p161
(i__main__
Info
p162
(dp163
g4
S'Freshman'
p164
sg6
S'Male'
p165
sg8
S'18 - 19'
p166
sg10
g161
sbsS'b1b76f39e4bcdf871e96c20ae87023e0b6688432'
p167
(i__main__
Info
p168
(dp169
g4
S'Freshman'
p170
sg6
S'Male'
p171
sg8
S'18 - 19'
p172
sg10
g167
sbsS'471d8d0212f97bee14a9467d371aac4b05f8090c'
p173
(i__main__
Info
p174
(dp175
g4
S'Freshman'
p176
sg6
S'Male'
p177
sg8
S'18 - 19'
p178
sg10
g173
sbsS'b5b62b765541290e1e0100141effda519d2c092d'
p179
(i__main__
Info
p180
(dp181
g4
g26
sg6
S'Male'
p182
sg8
S'25 - 29'
p183
sg10
g179
sbsS'4e664ebeb85d59ea29d4bd1d341953a6467bebab'
p184
(i__main__
Info
p185
(dp186
g4
S'Sophomore'
p187
sg6
S'Female'
p188
sg8
S'18 - 19'
p189
sg10
g184
sbsS'debc35c623162b0afd3d011a4f3906fe0b3c03ba'
p190
(i__main__
Info
p191
(dp192
g4
S'Freshman'
p193
sg6
S'Male'
p194
sg8
S'18 - 19'
p195
sg10
g190
sbsS'b0138c7df1a45184b4a5c8804b14795f716f70f6'
p196
(i__main__
Info
p197
(dp198
g4
S'Freshman'
p199
sg6
S'Male'
p200
sg8
S'22 - 24'
p201
sg10
g196
sbsS'424dc03ff3ce7c3e28b674192168a8750cd066b7'
p202
(i__main__
Info
p203
(dp204
g4
S'Freshman'
p205
sg6
S'Male'
p206
sg8
S'18 - 19'
p207
sg10
g202
sbsS'300c7b34339e5f7fd86ee0cb9c5ed3b40bb2f2b5'
p208
(i__main__
Info
p209
(dp210
g4
S'Sophomore'
p211
sg6
S'Male'
p212
sg8
S'18 - 19'
p213
sg10
g208
sbsS'9c2d0a101609038e9ba88134e2ed930c46a58eef'
p214
(i__main__
Info
p215
(dp216
g4
S'Sophomore'
p217
sg6
S'Male'
p218
sg8
S'18 - 19'
p219
sg10
g214
sbsS'e367a175bfbe39f1be857555228115d80cb9a156'
p220
(i__main__
Info
p221
(dp222
g4
S'Sophomore'
p223
sg6
S'Male'
p224
sg8
S'18 - 19'
p225
sg10
g220
sbsS'141df868f9cc8be8ba60ae78805fd2145144e105'
p226
(i__main__
Info
p227
(dp228
g4
S'Freshman'
p229
sg6
S'Male'
p230
sg8
S'18 - 19'
p231
sg10
g226
sbsS'05fac975428a62ca583a2d6f19cbdf5d9d327a3c'
p232
(i__main__
Info
p233
(dp234
g4
S'Staff'
p235
sg6
S'Female'
p236
sg8
S'40 - 49'
p237
sg10
g232
sbsS'71acaf1ab20de7f6c3b638059946035898809e19'
p238
(i__main__
Info
p239
(dp240
g4
S'Sophomore'
p241
sg6
S'Male'
p242
sg8
S'18 - 19'
p243
sg10
g238
sbsS'a8fc5f8b25378b4a1ad8967244161992149aadec'
p244
(i__main__
Info
p245
(dp246
g4
S'Freshman'
p247
sg6
S'Male'
p248
sg8
S'18 - 19'
p249
sg10
g244
sbsS'21467cb2cacf406d36d8e1fb05d4ff7498ea8706'
p250
(i__main__
Info
p251
(dp252
g4
S'Faculty'
p253
sg6
S'Male'
p254
sg8
S'30 - 34'
p255
sg10
g250
sbsS'0e479a11fba79e60444590b16c7d377dcdc89fb9'
p256
(i__main__
Info
p257
(dp258
g4
S'Sophomore'
p259
sg6
S'Male'
p260
sg8
S'18 - 19'
p261
sg10
g256
sbsS'6987404323242ed72802ab700565fd784444cd4c'
p262
(i__main__
Info
p263
(dp264
g4
S'Freshman'
p265
sg6
S'Male'
p266
sg8
S'18 - 19'
p267
sg10
g262
sbsS'58a81318e3a897a35a2973ae2ed72fa6aafc8969'
p268
(i__main__
Info
p269
(dp270
g4
g26
sg6
S'Male'
p271
sg8
S'20 - 21'
p272
sg10
g268
sbsS'c4716197ef00f2eb24ba69090d1d4074b78565c3'
p273
(i__main__
Info
p274
(dp275
g4
g26
sg6
S'Male'
p276
sg8
S'25 - 29'
p277
sg10
g273
sbsS'bf2a460dd824e7e3ed2807982ffbd6eac0e180e4'
p278
(i__main__
Info
p279
(dp280
g4
S'Not Affiliated'
p281
sg6
S'Female'
p282
sg8
S'22 - 24'
p283
sg10
g278
sbsS'6c0ef8dc70de4238bb59c545cf15d1b07d46de0a'
p284
(i__main__
Info
p285
(dp286
g4
S'Sophomore'
p287
sg6
S'Male'
p288
sg8
S'18 - 19'
p289
sg10
g284
sbsS'c427b03b877f69fbbb9e5e598dd27244b7f0705b'
p290
(i__main__
Info
p291
(dp292
g4
g26
sg6
S'Male'
p293
sg8
S'22 - 24'
p294
sg10
g290
sbsS'ee70c62d61fa4a5a6461123066adb2ba47f54f0b'
p295
(i__main__
Info
p296
(dp297
g4
S'Faculty'
p298
sg6
S'Female'
p299
sg8
S'35 - 39'
p300
sg10
g295
sbsS'bd25facedfc1dad068c3153fc4aa218be2007512'
p301
(i__main__
Info
p302
(dp303
g4
S'Freshman'
p304
sg6
S'Female'
p305
sg8
S'Under 18'
p306
sg10
g301
sbsS'83c87fee76617f51084f83e197f12b7cae62c63f'
p307
(i__main__
Info
p308
(dp309
g4
S'Not Affiliated'
p310
sg6
S'Male'
p311
sg8
S'25 - 29'
p312
sg10
g307
sbsS'b9adbf9fee8252093518f4e0179482433527229d'
p313
(i__main__
Info
p314
(dp315
g4
S'Freshman'
p316
sg6
S'Male'
p317
sg8
S'Under 18'
p318
sg10
g313
sbsS'7d552e0eeb0b06e0beb9a70e20d3f6e3802f0dfe'
p319
(i__main__
Info
p320
(dp321
g4
S'Freshman'
p322
sg6
S'Female'
p323
sg8
S'18 - 19'
p324
sg10
g319
sbsS'd5d5668fbae4a8fb8de0392fd892bb3831dd852d'
p325
(i__main__
Info
p326
(dp327
g4
g26
sg6
S'Male'
p328
sg8
S'25 - 29'
p329
sg10
g325
sbsS'29b2a8ac7b1b636324c5bc3b09bb95033ba6994b'
p330
(i__main__
Info
p331
(dp332
g4
S'Freshman'
p333
sg6
S'Male'
p334
sg8
S'18 - 19'
p335
sg10
g330
sbsS'05d546bbd7f015c6bd82d09e7ecdad9afe740da3'
p336
(i__main__
Info
p337
(dp338
g4
S'Freshman'
p339
sg6
S'Male'
p340
sg8
S'18 - 19'
p341
sg10
g336
sbsS'52b6499f4cc71424dde121d230457b076d7b7d59'
p342
(i__main__
Info
p343
(dp344
g4
S'Sophomore'
p345
sg6
S'Male'
p346
sg8
S'20 - 21'
p347
sg10
g342
sbsS'83da223fb57903a0ac997b631ef95fde76f086b4'
p348
(i__main__
Info
p349
(dp350
g4
S'Freshman'
p351
sg6
S'Male'
p352
sg8
S'18 - 19'
p353
sg10
g348
sbsS'09965de9fb912422bf166bab7964fb278f9344e8'
p354
(i__main__
Info
p355
(dp356
g4
g26
sg6
S'Male'
p357
sg8
S'30 - 34'
p358
sg10
g354
sbsS'd9a952bfee423368debf01fcd7fa4bdf29574a74'
p359
(i__main__
Info
p360
(dp361
g4
S'Freshman'
p362
sg6
S'Male'
p363
sg8
S'18 - 19'
p364
sg10
g359
sbsS'325b13a6ec251792e5ab04f2fa8568c6fcced572'
p365
(i__main__
Info
p366
(dp367
g4
g26
sg6
S'Male'
p368
sg8
S'22 - 24'
p369
sg10
g365
sbsS'b8a7fe1033cf08c324118f25c5e54e7387d887bf'
p370
(i__main__
Info
p371
(dp372
g4
S'Freshman'
p373
sg6
S'Male'
p374
sg8
S'18 - 19'
p375
sg10
g370
sbsS'3886320af67cdaa9246a956eb000f2ec07bf2668'
p376
(i__main__
Info
p377
(dp378
g4
S'Sophomore'
p379
sg6
S'Male'
p380
sg8
S'18 - 19'
p381
sg10
g376
sbsS'1f9df7564e4c5f2ac44c6960487740cbc596c1ee'
p382
(i__main__
Info
p383
(dp384
g4
S'Freshman'
p385
sg6
S'Male'
p386
sg8
S'20 - 21'
p387
sg10
g382
sbsS'eaa6a66c4f71f35c9aa769a7c3771c0e6790bd1b'
p388
(i__main__
Info
p389
(dp390
g4
S'Freshman'
p391
sg6
S'Male'
p392
sg8
S'18 - 19'
p393
sg10
g388
sbsS'c71089af01f858ed7bbe334f7fdc51e8012806a2'
p394
(i__main__
Info
p395
(dp396
g4
g26
sg6
S'Female'
p397
sg8
S'25 - 29'
p398
sg10
g394
sbsS'b2b89af58e4da5dbcb6aab83c6c64ca59236883a'
p399
(i__main__
Info
p400
(dp401
g4
S'Faculty'
p402
sg6
S'Female'
p403
sg8
S'Over 60'
p404
sg10
g399
sbsS'7f0afda08470ecf6f035d523a23205bdfa2f6a81'
p405
(i__main__
Info
p406
(dp407
g4
S'Faculty'
p408
sg6
S'Male'
p409
sg8
S'35 - 39'
p410
sg10
g405
sbsS'05a9337ad641d0c5fd023f7c0cde1df1d8928a50'
p411
(i__main__
Info
p412
(dp413
g4
g26
sg6
S'Male'
p414
sg8
S'25 - 29'
p415
sg10
g411
sbsS'b820b364377c61f3ab10d8d525aebd71e61f2314'
p416
(i__main__
Info
p417
(dp418
g4
g26
sg6
S'Male'
p419
sg8
S'22 - 24'
p420
sg10
g416
sbsS'ed1c5e4da101b0ed82b91fd17e1b528e6d6fd438'
p421
(i__main__
Info
p422
(dp423
g4
S'Not Affiliated'
p424
sg6
S'Male'
p425
sg8
S'25 - 29'
p426
sg10
g421
sbsS'd1fc8be4fd59ba684bbd0221a35bbdaf6713a500'
p427
(i__main__
Info
p428
(dp429
g4
S'Sophomore'
p430
sg6
S'Male'
p431
sg8
S'18 - 19'
p432
sg10
g427
sbsS'2a0185e1bd9a266f7295698ae813bd56ad3b7b05'
p433
(i__main__
Info
p434
(dp435
g4
g26
sg6
S'Female'
p436
sg8
S'30 - 34'
p437
sg10
g433
sbsS'1b80657fbaa2444f1c37fbce12f3027e2e387afb'
p438
(i__main__
Info
p439
(dp440
g4
g26
sg6
S'Male'
p441
sg8
S'30 - 34'
p442
sg10
g438
sbsS'97e2684bd021c35a3212af267cf66617903f125e'
p443
(i__main__
Info
p444
(dp445
g4
S'Sophomore'
p446
sg6
S'Male'
p447
sg8
S'18 - 19'
p448
sg10
g443
sbsS'f95a1b507b2be58b0da2b2d963cc375693b9f8fd'
p449
(i__main__
Info
p450
(dp451
g4
S'Freshman'
p452
sg6
S'Male'
p453
sg8
S'Under 18'
p454
sg10
g449
sbsS'5d42579bf955f84840cc97362e2f9444dce9ddef'
p455
(i__main__
Info
p456
(dp457
g4
S'Freshman'
p458
sg6
S'Male'
p459
sg8
S'18 - 19'
p460
sg10
g455
sbsS'4e1b9a7bfab08f110b2dbf4faa0f8e8df2ed1211'
p461
(i__main__
Info
p462
(dp463
g4
S'Freshman'
p464
sg6
S'Male'
p465
sg8
S'18 - 19'
p466
sg10
g461
sbsS'ca8095e81714982f789181b03924a6c2f27e119d'
p467
(i__main__
Info
p468
(dp469
g4
S'Freshman'
p470
sg6
S'Female'
p471
sg8
S'18 - 19'
p472
sg10
g467
sbsS'26312cb7505c9ec8fbce10eafdcbca4d44c212b6'
p473
(i__main__
Info
p474
(dp475
g4
S'Freshman'
p476
sg6
S'Male'
p477
sg8
S'18 - 19'
p478
sg10
g473
sbsS'698e20df3bd62f30d4525159df83f3edd113b032'
p479
(i__main__
Info
p480
(dp481
g4
S'Freshman'
p482
sg6
S'Female'
p483
sg8
S'18 - 19'
p484
sg10
g479
sbsS'50c457d696e2ddd89b588075c81d3a53d6b21928'
p485
(i__main__
Info
p486
(dp487
g4
S'Freshman'
p488
sg6
S'Male'
p489
sg8
S'18 - 19'
p490
sg10
g485
sbsS'1885c8454e126c658cd66f43794d184ad4b19adb'
p491
(i__main__
Info
p492
(dp493
g4
g26
sg6
S'Male'
p494
sg8
S'35 - 39'
p495
sg10
g491
sbsS'7abd0c8221de1895bf50962201eaf75192ee4085'
p496
(i__main__
Info
p497
(dp498
g4
S'Freshman'
p499
sg6
S'Male'
p500
sg8
S'Under 18'
p501
sg10
g496
sbsS'3b561dbe5c3e3c8ffce8720afb08aaab5e88ca91'
p502
(i__main__
Info
p503
(dp504
g4
g26
sg6
S'Female'
p505
sg8
S'30 - 34'
p506
sg10
g502
sbsS'7aae2d20b6cf27bc63eafe4132c88c02a38a2f04'
p507
(i__main__
Info
p508
(dp509
g4
S'Staff'
p510
sg6
S'Male'
p511
sg8
S'25 - 29'
p512
sg10
g507
sbsS'8925052990b2e83fe6f7557ecf5ef8679b530690'
p513
(i__main__
Info
p514
(dp515
g4
g26
sg6
S'Male'
p516
sg8
S'25 - 29'
p517
sg10
g513
sbsS'8ac595b768cbf2b97d127db697156210c5e0b808'
p518
(i__main__
Info
p519
(dp520
g4
S'Freshman'
p521
sg6
S'Male'
p522
sg8
S'18 - 19'
p523
sg10
g518
sbsS'8d55ea1c534ff0ce4af27e1130d4630e3fad0229'
p524
(i__main__
Info
p525
(dp526
g4
S'Freshman'
p527
sg6
S'Male'
p528
sg8
S'18 - 19'
p529
sg10
g524
sbsS'69c0ff929c19f9e945d91f49087f64add384d494'
p530
(i__main__
Info
p531
(dp532
g4
g26
sg6
S'Female'
p533
sg8
S'25 - 29'
p534
sg10
g530
sbsS'536cdd669fd1de8fffad5f43c7b0c4d55e5e15aa'
p535
(i__main__
Info
p536
(dp537
g4
S'Sophomore'
p538
sg6
S'Male'
p539
sg8
S'18 - 19'
p540
sg10
g535
sbsS'c5cc241055806b19e283d1a9eeb58b2ef2e160f5'
p541
(i__main__
Info
p542
(dp543
g4
S'Not Affiliated'
p544
sg6
S'Male'
p545
sg8
S'25 - 29'
p546
sg10
g541
sbsS'3f73c79cfffccc560a28ef69272308f312c9119b'
p547
(i__main__
Info
p548
(dp549
g4
S'Sophomore'
p550
sg6
S'Male'
p551
sg8
S'18 - 19'
p552
sg10
g547
sbsS'e57d86fa20733c767cfad0e70c1df7f0076a8118'
p553
(i__main__
Info
p554
(dp555
g4
g26
sg6
S'Male'
p556
sg8
S'22 - 24'
p557
sg10
g553
sbsS'1e761cbd0dd769609a7d406e693b727f7af42c04'
p558
(i__main__
Info
p559
(dp560
g4
S'Freshman'
p561
sg6
S'Male'
p562
sg8
S'18 - 19'
p563
sg10
g558
sbsS'bf496c47a2430c7618b8b2dc0cb7b3113a6c7675'
p564
(i__main__
Info
p565
(dp566
g4
S'Sophomore'
p567
sg6
S'Male'
p568
sg8
S'20 - 21'
p569
sg10
g564
sbsS'c1cd06b30880f8cd26712d0be26cd9767b8a6cea'
p570
(i__main__
Info
p571
(dp572
g4
S'Sophomore'
p573
sg6
S'Male'
p574
sg8
S'18 - 19'
p575
sg10
g570
sbsS'848790ba52e1e8ec92be246cc7a11e4b56324ec3'
p576
(i__main__
Info
p577
(dp578
g4
S'Freshman'
p579
sg6
S'Male'
p580
sg8
S'Under 18'
p581
sg10
g576
sbsS'c3791e680c089cef7d4c52a82ef5e47ae4d5c99b'
p582
(i__main__
Info
p583
(dp584
g4
S'Freshman'
p585
sg6
S'Male'
p586
sg8
S'18 - 19'
p587
sg10
g582
sbsS'd898d903596e184de845793afe1a4c28f8d9866a'
p588
(i__main__
Info
p589
(dp590
g4
g26
sg6
S'Male'
p591
sg8
S'25 - 29'
p592
sg10
g588
sbsS'5daff968352233c57457814e0e6d3d0544abb8dd'
p593
(i__main__
Info
p594
(dp595
g4
S'Faculty'
p596
sg6
S'Male'
p597
sg8
S'50 - 59'
p598
sg10
g593
sbsS'fa96fd2d82eecdc29cad8127fd7d92e3e8649267'
p599
(i__main__
Info
p600
(dp601
g4
S'Faculty'
p602
sg6
S'Male'
p603
sg8
S'40 - 49'
p604
sg10
g599
sbsS'ce075b1ed30b96e9dabf705cf59f605efaf94796'
p605
(i__main__
Info
p606
(dp607
g4
g26
sg6
S'Male'
p608
sg8
S'30 - 34'
p609
sg10
g605
sbsS'a3479167cadbd075b2dd3669db3da65054f1da52'
p610
(i__main__
Info
p611
(dp612
g4
g26
sg6
S'Male'
p613
sg8
S'22 - 24'
p614
sg10
g610
sbsS'b054255fddec941b365df938dc3244ded42cd1b9'
p615
(i__main__
Info
p616
(dp617
g4
S'Freshman'
p618
sg6
S'Male'
p619
sg8
S'18 - 19'
p620
sg10
g615
sbsS'cf8b5efd7b6a97af8ff920ec14f3bb2bf7aa6866'
p621
(i__main__
Info
p622
(dp623
g4
g26
sg6
S'Male'
p624
sg8
S'22 - 24'
p625
sg10
g621
sbsS'633e6316d80f2a36c79f079203fe7bb55583a131'
p626
(i__main__
Info
p627
(dp628
g4
S'Senior'
p629
sg6
S'Male'
p630
sg8
S'20 - 21'
p631
sg10
g626
sbsS'17949023c6f10268b4c0c7a7852f01bbdeaa6f90'
p632
(i__main__
Info
p633
(dp634
g4
g26
sg6
S'Male'
p635
sg8
S'20 - 21'
p636
sg10
g632
sbsS'8762af4c02ebae711268fe2193bb13e24465e5fe'
p637
(i__main__
Info
p638
(dp639
g4
g26
sg6
S'Male'
p640
sg8
S'25 - 29'
p641
sg10
g637
sbsS'6061b9e7a4078be372b8aabf4706b5770c14d6d9'
p642
(i__main__
Info
p643
(dp644
g4
S'Freshman'
p645
sg6
S'Male'
p646
sg8
S'18 - 19'
p647
sg10
g642
sbsS'9d8e3a32775738981672948b6e54cd96623941d3'
p648
(i__main__
Info
p649
(dp650
g4
S'Freshman'
p651
sg6
S'Male'
p652
sg8
S'18 - 19'
p653
sg10
g648
sbsS'472772b4b05acda66e0b42895027bd91a56842d6'
p654
(i__main__
Info
p655
(dp656
g4
S'Staff'
p657
sg6
S'Male'
p658
sg8
S'40 - 49'
p659
sg10
g654
sbsS'a7507fe6fca55f1b89a3b21549e08fe24c309799'
p660
(i__main__
Info
p661
(dp662
g4
g26
sg6
S'Male'
p663
sg8
S'25 - 29'
p664
sg10
g660
sbsS'11edfb138e226a1f4dac0d31293cc22733f56957'
p665
(i__main__
Info
p666
(dp667
g4
S'Freshman'
p668
sg6
S'Female'
p669
sg8
S'18 - 19'
p670
sg10
g665
sbsS'da822b229a868bfe8960c26a45e460430e15cb75'
p671
(i__main__
Info
p672
(dp673
g4
S'Sophomore'
p674
sg6
S'Male'
p675
sg8
S'18 - 19'
p676
sg10
g671
sbsS'41f1a45581e3c2ed833fb7c3c334195ffc049bae'
p677
(i__main__
Info
p678
(dp679
g4
S'Sophomore'
p680
sg6
S'Male'
p681
sg8
S'20 - 21'
p682
sg10
g677
sbsS'f8bd4596de6bb09bf8b58d20d7d158c3c847e75b'
p683
(i__main__
Info
p684
(dp685
g4
S'Freshman'
p686
sg6
S'Male'
p687
sg8
S'18 - 19'
p688
sg10
g683
sbsS'7606547a5e6a9cf20a5f87a9335e02a51f6d9391'
p689
(i__main__
Info
p690
(dp691
g4
g26
sg6
S'Female'
p692
sg8
S'22 - 24'
p693
sg10
g689
sbsS'9f96ee1d96086a508117b6656df27778cf92e572'
p694
(i__main__
Info
p695
(dp696
g4
S'Staff'
p697
sg6
S'Female'
p698
sg8
S'50 - 59'
p699
sg10
g694
sbsS'852937332d080230d960c941ba219ca3e927d2a8'
p700
(i__main__
Info
p701
(dp702
g4
S'Staff'
p703
sg6
S'Female'
p704
sg8
S'50 - 59'
p705
sg10
g700
sbsS'1d1f4762cfeddcf02d7a038d523f7839360addd0'
p706
(i__main__
Info
p707
(dp708
g4
g26
sg6
S'Male'
p709
sg8
S'22 - 24'
p710
sg10
g706
sbsS'351620bf3197f8e9d0d5d6f89cf70dec9aad4c86'
p711
(i__main__
Info
p712
(dp713
g4
g26
sg6
S'Male'
p714
sg8
S'25 - 29'
p715
sg10
g711
sbsS'41db811b4ee765b9c86b21f41023b21b20810c9f'
p716
(i__main__
Info
p717
(dp718
g4
g26
sg6
S'Male'
p719
sg8
S'20 - 21'
p720
sg10
g716
sbsS'd08bc4e7a39c825a900e3576a64e8890bf7584c3'
p721
(i__main__
Info
p722
(dp723
g4
g26
sg6
S'Male'
p724
sg8
S'25 - 29'
p725
sg10
g721
sbsS'2837fec5ceebd117d9dd5d8d5265a999f7365735'
p726
(i__main__
Info
p727
(dp728
g4
S'Freshman'
p729
sg6
S'Male'
p730
sg8
S'18 - 19'
p731
sg10
g726
sbsS'2944fce67fb77a64fbbba7200bc71a9065645726'
p732
(i__main__
Info
p733
(dp734
g4
S'Staff'
p735
sg6
S'Female'
p736
sg8
S'40 - 49'
p737
sg10
g732
sbsS'876aae0ea6f37870801b46631226e8812ab47e66'
p738
(i__main__
Info
p739
(dp740
g4
g26
sg6
S'Female'
p741
sg8
S'25 - 29'
p742
sg10
g738
sbsS'03ae9c0a7db673bcc8681fe8d6d7f8d881651f8d'
p743
(i__main__
Info
p744
(dp745
g4
g26
sg6
S'Female'
p746
sg8
S'35 - 39'
p747
sg10
g743
sbsS'85742abe414bad882d36fd5c40e28261b9319b17'
p748
(i__main__
Info
p749
(dp750
g4
g26
sg6
S'Male'
p751
sg8
S'25 - 29'
p752
sg10
g748
sbsS'ab9e337a0296b51931a448468a7a4b5ef489dd68'
p753
(i__main__
Info
p754
(dp755
g4
S'Freshman'
p756
sg6
S'Male'
p757
sg8
S'18 - 19'
p758
sg10
g753
sbsS'095fa93c8d6d5f5a397dc7983c18cdf46b583575'
p759
(i__main__
Info
p760
(dp761
g4
S'Freshman'
p762
sg6
S'Male'
p763
sg8
S'18 - 19'
p764
sg10
g759
sbsS'76de46893c55234d0f7737e304d88c7a01843107'
p765
(i__main__
Info
p766
(dp767
g4
S'Freshman'
p768
sg6
S'Female'
p769
sg8
S'Under 18'
p770
sg10
g765
sbsS'64d79b757b5d1826e51ee36eab3d1a3e014667c9'
p771
(i__main__
Info
p772
(dp773
g4
g26
sg6
S'Male'
p774
sg8
S'30 - 34'
p775
sg10
g771
sbsS'3688d40a7c2ceac75ccd763fdae26c54777ca831'
p776
(i__main__
Info
p777
(dp778
g4
S'Freshman'
p779
sg6
S'Male'
p780
sg8
S'Under 18'
p781
sg10
g776
sbsS'4fc623fb9bc167e31ad73ecdc894af6518c85345'
p782
(i__main__
Info
p783
(dp784
g4
g123
sg6
S'Male'
p785
sg8
S'22 - 24'
p786
sg10
g782
sbsS'4f9be262d273a64c7a3ebb089048bff010e7071d'
p787
(i__main__
Info
p788
(dp789
g4
g26
sg6
S'Male'
p790
sg8
S'30 - 34'
p791
sg10
g787
sbsS'b9f59566b40a1ce760976fdef7339b4671d940c9'
p792
(i__main__
Info
p793
(dp794
g4
S'Freshman'
p795
sg6
S'Female'
p796
sg8
S'18 - 19'
p797
sg10
g792
sbsS'141b355defeacd5cb1ec70d0c35cd86c5d4adfca'
p798
(i__main__
Info
p799
(dp800
g4
S'Freshman'
p801
sg6
S'Male'
p802
sg8
S'18 - 19'
p803
sg10
g798
sbsS'ec7eec49afe4034f9c9cd94d957b09018f35bf17'
p804
(i__main__
Info
p805
(dp806
g4
S'Freshman'
p807
sg6
S'Male'
p808
sg8
S'22 - 24'
p809
sg10
g804
sbsS'8217ec227199872c961d15c037bff310fa4b3660'
p810
(i__main__
Info
p811
(dp812
g4
S'Sophomore'
p813
sg6
S'Male'
p814
sg8
S'20 - 21'
p815
sg10
g810
sbsS'6d756e98682e382fc53769f9f8467e28a546151c'
p816
(i__main__
Info
p817
(dp818
g4
g26
sg6
S'Male'
p819
sg8
S'30 - 34'
p820
sg10
g816
sbsS'703e9bbcdc19deeecf6f7cccf5ef48e30254b9e9'
p821
(i__main__
Info
p822
(dp823
g4
S'Sophomore'
p824
sg6
S'Male'
p825
sg8
S'18 - 19'
p826
sg10
g821
sbsS'd52b74f36d015cf66399dd25806a65a6385537cd'
p827
(i__main__
Info
p828
(dp829
g4
S'Not Affiliated'
p830
sg6
S'Female'
p831
sg8
S'40 - 49'
p832
sg10
g827
sbsS'130e9c48757e33741beae762be7f8d6242f48b47'
p833
(i__main__
Info
p834
(dp835
g4
S'Faculty'
p836
sg6
S'Male'
p837
sg8
S'35 - 39'
p838
sg10
g833
sbsS'77357e6cee5987da0ea04d7a3287275de1205057'
p839
(i__main__
Info
p840
(dp841
g4
S'Faculty'
p842
sg6
S'Male'
p843
sg8
S'30 - 34'
p844
sg10
g839
sbsS'693f6a33bedd18b37f0618bf62832717707e37dd'
p845
(i__main__
Info
p846
(dp847
g4
S'Sophomore'
p848
sg6
S'Male'
p849
sg8
S'18 - 19'
p850
sg10
g845
sbsS'2c0d93b348866399eb6ee178e01518a3b6183a8a'
p851
(i__main__
Info
p852
(dp853
g4
g123
sg6
S'Male'
p854
sg8
S'22 - 24'
p855
sg10
g851
sbsS'0fa00f8fec8f54acad3a8892843b856b549bb222'
p856
(i__main__
Info
p857
(dp858
g4
g26
sg6
S'Male'
p859
sg8
S'22 - 24'
p860
sg10
g856
sbsS'e40d619b1279681eaa4b11ff087119f430ce4378'
p861
(i__main__
Info
p862
(dp863
g4
S'Sophomore'
p864
sg6
S'Male'
p865
sg8
S'18 - 19'
p866
sg10
g861
sbsS'dee5b4e63585713f815add8e1d017e4ca1505c54'
p867
(i__main__
Info
p868
(dp869
g4
g26
sg6
S'Female'
p870
sg8
S'22 - 24'
p871
sg10
g867
sbsS'ef73bcb3ca6da2ce33cd56398c555fad7fa1a39c'
p872
(i__main__
Info
p873
(dp874
g4
g26
sg6
S'Male'
p875
sg8
S'25 - 29'
p876
sg10
g872
sbsS'c4e225303668750eeaea4dd65464f4c42eb2bd32'
p877
(i__main__
Info
p878
(dp879
g4
S'Faculty'
p880
sg6
S'Female'
p881
sg8
S'50 - 59'
p882
sg10
g877
sbsS'be68a71d1429b45960ab213e1c48723a0694dc4a'
p883
(i__main__
Info
p884
(dp885
g4
S'Staff'
p886
sg6
S'Female'
p887
sg8
S'40 - 49'
p888
sg10
g883
sbsS'c7ca4189ad01ec9627ea5fb76db6ec0702ee28e5'
p889
(i__main__
Info
p890
(dp891
g4
S'Sophomore'
p892
sg6
S'Male'
p893
sg8
S'Under 18'
p894
sg10
g889
sbsS'96d44be8425a00f514ca91d5354c94060d6a7c24'
p895
(i__main__
Info
p896
(dp897
g4
S'Staff'
p898
sg6
S'Female'
p899
sg8
S'40 - 49'
p900
sg10
g895
sbsS'671d6b6abe0559c90992b4f92fc7368892a8c62a'
p901
(i__main__
Info
p902
(dp903
g4
g26
sg6
S'Female'
p904
sg8
S'25 - 29'
p905
sg10
g901
sbsS'4387434bc6180664f2b0f650ede852f5a02e3cac'
p906
(i__main__
Info
p907
(dp908
g4
S'Professional'
p909
sg6
S'Male'
p910
sg8
S'25 - 29'
p911
sg10
g906
sbsS'174586b0721cb4c473a20e8cbf817124f8655706'
p912
(i__main__
Info
p913
(dp914
g4
S'Faculty'
p915
sg6
S'Male'
p916
sg8
S'40 - 49'
p917
sg10
g912
sbsS'cd4b2cee2704b419d51fcc3cf12da47f0f098c87'
p918
(i__main__
Info
p919
(dp920
g4
S'Freshman'
p921
sg6
S'Female'
p922
sg8
S'18 - 19'
p923
sg10
g918
sbsS'bdc7cf1e24b0ab13205f9d1980143e997612ef69'
p924
(i__main__
Info
p925
(dp926
g4
g26
sg6
S'Male'
p927
sg8
S'25 - 29'
p928
sg10
g924
sbsS'0ffaf2a38e052f08f9ae5f56ef4cb85b571ed5c7'
p929
(i__main__
Info
p930
(dp931
g4
g26
sg6
S'Female'
p932
sg8
S'25 - 29'
p933
sg10
g929
sbsS'86d7bc69f05af1cb70cb38510e7c2dc9a94e476d'
p934
(i__main__
Info
p935
(dp936
g4
S'Freshman'
p937
sg6
S'Female'
p938
sg8
S'18 - 19'
p939
sg10
g934
sbsS'7faf727d093a1cad8e04b6a17196656d682382c2'
p940
(i__main__
Info
p941
(dp942
g4
S'Staff'
p943
sg6
S'Female'
p944
sg8
S'30 - 34'
p945
sg10
g940
sbsS'dcd4ea58b0f89545fa07d543a660493041b765c6'
p946
(i__main__
Info
p947
(dp948
g4
g26
sg6
S'Male'
p949
sg8
S'25 - 29'
p950
sg10
g946
sbsS'5721951bf4c867107073c6c39aca5e61134f44c4'
p951
(i__main__
Info
p952
(dp953
g4
S'Freshman'
p954
sg6
S'Male'
p955
sg8
S'18 - 19'
p956
sg10
g951
sbsS'43a739a969a2d66cb6687dd537214e9a0bf3aa09'
p957
(i__main__
Info
p958
(dp959
g4
S'Staff'
p960
sg6
S'Female'
p961
sg8
S'30 - 34'
p962
sg10
g957
sbsS'3844ad32f0bce2e111d6a063c80d49e6c942955a'
p963
(i__main__
Info
p964
(dp965
g4
S'Sophomore'
p966
sg6
S'Female'
p967
sg8
S'Under 18'
p968
sg10
g963
sbsS'3ddb921496c26db81aa7022893f07656e996b6e4'
p969
(i__main__
Info
p970
(dp971
g4
g26
sg6
S'Male'
p972
sg8
S'30 - 34'
p973
sg10
g969
sbsS'd9d265de5ec6df2a0f64866848f0d405ec5821bc'
p974
(i__main__
Info
p975
(dp976
g4
g909
sg6
S'Male'
p977
sg8
S'22 - 24'
p978
sg10
g974
sbsS'ae0224dec23a1845010bfcc17ef2de90f989afa2'
p979
(i__main__
Info
p980
(dp981
g4
S'Freshman'
p982
sg6
S'Female'
p983
sg8
S'18 - 19'
p984
sg10
g979
sbsS'00b5aef29eecac726dc36f0daf6fd24df1c3bb43'
p985
(i__main__
Info
p986
(dp987
g4
g26
sg6
S'Male'
p988
sg8
S'20 - 21'
p989
sg10
g985
sbsS'436090a381b35bf65a49000d035b721e547cac7f'
p990
(i__main__
Info
p991
(dp992
g4
S'Sophomore'
p993
sg6
S'Male'
p994
sg8
S'18 - 19'
p995
sg10
g990
sbsS'625abf8eba9d49c7aecdeab8c7e43e1a61802275'
p996
(i__main__
Info
p997
(dp998
g4
S'Sophomore'
p999
sg6
S'Male'
p1000
sg8
S'18 - 19'
p1001
sg10
g996
sbsS'8bdf35ef2b8e9a1fbc2f31a7abc496d4a3076d3f'
p1002
(i__main__
Info
p1003
(dp1004
g4
S'Sophomore'
p1005
sg6
S'Male'
p1006
sg8
S'20 - 21'
p1007
sg10
g1002
sbsS'f56c82a9e552ea985c9179e22e5418db46609b35'
p1008
(i__main__
Info
p1009
(dp1010
g4
S'Freshman'
p1011
sg6
S'Female'
p1012
sg8
S'22 - 24'
p1013
sg10
g1008
sbsS'bf42e9f4379fb735ae269185865c6b986a7b1424'
p1014
(i__main__
Info
p1015
(dp1016
g4
S'Freshman'
p1017
sg6
S'Male'
p1018
sg8
S'18 - 19'
p1019
sg10
g1014
sbsS'15943939b9830218bd26a9e8cf2020e1fd0dd46e'
p1020
(i__main__
Info
p1021
(dp1022
g4
S'Freshman'
p1023
sg6
S'Female'
p1024
sg8
S'18 - 19'
p1025
sg10
g1020
sbsS'8a2896c0805f2cb87a363d6c89304c2bacfae359'
p1026
(i__main__
Info
p1027
(dp1028
g4
g26
sg6
S'Male'
p1029
sg8
S'30 - 34'
p1030
sg10
g1026
sbsS'9db63d61bf0614ff09aabd74b36ef572036cf574'
p1031
(i__main__
Info
p1032
(dp1033
g4
S'Freshman'
p1034
sg6
S'Male'
p1035
sg8
S'18 - 19'
p1036
sg10
g1031
sbsS'933ecae7e3b63ef1fc0fb22aa54abb5ef730fa98'
p1037
(i__main__
Info
p1038
(dp1039
g4
S'Junior'
p1040
sg6
S'Female'
p1041
sg8
S'22 - 24'
p1042
sg10
g1037
sbsS'f6bfda82f1c30311bc0b991abad7881456a8d9c0'
p1043
(i__main__
Info
p1044
(dp1045
g4
S'Staff'
p1046
sg6
S'Female'
p1047
sg8
S'40 - 49'
p1048
sg10
g1043
sbsS'b8ec929c1fbdbc43f9d3c889170e1b55a0d94652'
p1049
(i__main__
Info
p1050
(dp1051
g4
S'Sophomore'
p1052
sg6
S'Female'
p1053
sg8
S'18 - 19'
p1054
sg10
g1049
sbsS'c0b73068edc44535d3545582b6dc690cbee12cc5'
p1055
(i__main__
Info
p1056
(dp1057
g4
g26
sg6
S'Male'
p1058
sg8
S'25 - 29'
p1059
sg10
g1055
sbsS'c16dc2630ec765d7240fb5abd3ace0b7ef780ccb'
p1060
(i__main__
Info
p1061
(dp1062
g4
g26
sg6
S'Male'
p1063
sg8
S'22 - 24'
p1064
sg10
g1060
sbsS'142d0e1e9a036df7d531ff1f3e3d977bab29c358'
p1065
(i__main__
Info
p1066
(dp1067
g4
S'Freshman'
p1068
sg6
S'Female'
p1069
sg8
S'18 - 19'
p1070
sg10
g1065
sbsS'90d8e13af461e000dc2d81a995dd8fd989847c95'
p1071
(i__main__
Info
p1072
(dp1073
g4
g123
sg6
S'Female'
p1074
sg8
S'22 - 24'
p1075
sg10
g1071
sbsS'5e5cebc642505d92050f88e7cc5f5b4365c7d20c'
p1076
(i__main__
Info
p1077
(dp1078
g4
S'Freshman'
p1079
sg6
S'Male'
p1080
sg8
S'18 - 19'
p1081
sg10
g1076
sbsS'3cd6b1a65286ff8b18a392a10db23a362f8b670b'
p1082
(i__main__
Info
p1083
(dp1084
g4
S'Freshman'
p1085
sg6
S'Male'
p1086
sg8
S'18 - 19'
p1087
sg10
g1082
sbs.